target datalayout = "e-m:e-p270:32:32-p271:32:32-p272:64:64-i64:64-i128:128-f80:128-n8:16:32:64-S128"
target triple = "x86_64-pc-linux-gnu"

%struct._expr = type { i32, %union.anon.37, i32, i32, i32, i32 }
%union.anon.37 = type { %struct.anon.40 }
%struct.anon.40 = type { ptr, i32, ptr }
%struct.anon.60 = type { ptr, i32 }

@PyExc_ValueError = external global ptr, align 8
@.str.54 = private unnamed_addr constant [38 x i8] c"field 'value' is required for Starred\00", align 1
@.str.55 = private unnamed_addr constant [36 x i8] c"field 'ctx' is required for Starred\00", align 1

; Function Attrs: nounwind uwtable
define hidden ptr @_PyAST_Starred(ptr noundef %0, i32 noundef %1, i32 noundef %2, i32 noundef %3, i32 noundef %4, i32 noundef %5, ptr noundef %6) #0 {
  %8 = alloca ptr, align 8
  %9 = alloca ptr, align 8
  %10 = alloca i32, align 4
  %11 = alloca i32, align 4
  %12 = alloca i32, align 4
  %13 = alloca i32, align 4
  %14 = alloca i32, align 4
  %15 = alloca ptr, align 8
  %16 = alloca ptr, align 8
  %17 = alloca i32, align 4
  store ptr %0, ptr %9, align 8, !tbaa !34
  store i32 %1, ptr %10, align 4, !tbaa !38
  store i32 %2, ptr %11, align 4, !tbaa !38
  store i32 %3, ptr %12, align 4, !tbaa !38
  store i32 %4, ptr %13, align 4, !tbaa !38
  store i32 %5, ptr %14, align 4, !tbaa !38
  store ptr %6, ptr %15, align 8, !tbaa !24
  call void @llvm.lifetime.start.p0(i64 8, ptr %16) #8
  %18 = load ptr, ptr %9, align 8, !tbaa !34
  %19 = icmp ne ptr %18, null
  br i1 %19, label %22, label %20

20:                                               ; preds = %7
  %21 = load ptr, ptr @PyExc_ValueError, align 8, !tbaa !13
  call void @PyErr_SetString(ptr noundef %21, ptr noundef @.str.54)
  store ptr null, ptr %8, align 8
  store i32 1, ptr %17, align 4
  br label %57

22:                                               ; preds = %7
  %23 = load i32, ptr %10, align 4, !tbaa !38
  %24 = icmp ne i32 %23, 0
  br i1 %24, label %27, label %25

25:                                               ; preds = %22
  %26 = load ptr, ptr @PyExc_ValueError, align 8, !tbaa !13
  call void @PyErr_SetString(ptr noundef %26, ptr noundef @.str.55)
  store ptr null, ptr %8, align 8
  store i32 1, ptr %17, align 4
  br label %57

27:                                               ; preds = %22
  %28 = load ptr, ptr %15, align 8, !tbaa !24
  %29 = call ptr @_PyArena_Malloc(ptr noundef %28, i64 noundef 48)
  store ptr %29, ptr %16, align 8, !tbaa !34
  %30 = load ptr, ptr %16, align 8, !tbaa !34
  %31 = icmp ne ptr %30, null
  br i1 %31, label %33, label %32

32:                                               ; preds = %27
  store ptr null, ptr %8, align 8
  store i32 1, ptr %17, align 4
  br label %57

33:                                               ; preds = %27
  %34 = load ptr, ptr %16, align 8, !tbaa !34
  %35 = getelementptr inbounds nuw %struct._expr, ptr %34, i32 0, i32 0
  store i32 23, ptr %35, align 8, !tbaa !47
  %36 = load ptr, ptr %9, align 8, !tbaa !34
  %37 = load ptr, ptr %16, align 8, !tbaa !34
  %38 = getelementptr inbounds nuw %struct._expr, ptr %37, i32 0, i32 1
  %39 = getelementptr inbounds nuw %struct.anon.60, ptr %38, i32 0, i32 0
  store ptr %36, ptr %39, align 8, !tbaa !21
  %40 = load i32, ptr %10, align 4, !tbaa !38
  %41 = load ptr, ptr %16, align 8, !tbaa !34
  %42 = getelementptr inbounds nuw %struct._expr, ptr %41, i32 0, i32 1
  %43 = getelementptr inbounds nuw %struct.anon.60, ptr %42, i32 0, i32 1
  store i32 %40, ptr %43, align 8, !tbaa !21
  %44 = load i32, ptr %11, align 4, !tbaa !38
  %45 = load ptr, ptr %16, align 8, !tbaa !34
  %46 = getelementptr inbounds nuw %struct._expr, ptr %45, i32 0, i32 2
  store i32 %44, ptr %46, align 8, !tbaa !49
  %47 = load i32, ptr %12, align 4, !tbaa !38
  %48 = load ptr, ptr %16, align 8, !tbaa !34
  %49 = getelementptr inbounds nuw %struct._expr, ptr %48, i32 0, i32 3
  store i32 %47, ptr %49, align 4, !tbaa !50
  %50 = load i32, ptr %13, align 4, !tbaa !38
  %51 = load ptr, ptr %16, align 8, !tbaa !34
  %52 = getelementptr inbounds nuw %struct._expr, ptr %51, i32 0, i32 4
  store i32 %50, ptr %52, align 8, !tbaa !51
  %53 = load i32, ptr %14, align 4, !tbaa !38
  %54 = load ptr, ptr %16, align 8, !tbaa !34
  %55 = getelementptr inbounds nuw %struct._expr, ptr %54, i32 0, i32 5
  store i32 %53, ptr %55, align 4, !tbaa !52
  %56 = load ptr, ptr %16, align 8, !tbaa !34
  store ptr %56, ptr %8, align 8
  store i32 1, ptr %17, align 4
  br label %57

57:                                               ; preds = %33, %32, %25, %20
  call void @llvm.lifetime.end.p0(i64 8, ptr %16) #8
  %58 = load ptr, ptr %8, align 8
  ret ptr %58
}